; Function Attrs: mustprogress uwtable
define internal void @_ZN12_GLOBAL__N_15BTVL18initImplERN2cv3PtrINS1_8superres11FrameSourceEEE(ptr noundef nonnull align 8 dereferenceable(1456) %0, ptr nocapture noundef nonnull readonly align 8 dereferenceable(16) %1) unnamed_addr #0 align 2 personality ptr @__gxx_personality_v0 {
  %3 = getelementptr inbounds i8, ptr %0, i64 96
  %4 = load i32, ptr %3, align 8
  %5 = shl nsw i32 %4, 1
  %6 = or disjoint i32 %5, 1
  %7 = getelementptr inbounds i8, ptr %0, i64 1192
  %8 = sext i32 %6 to i64
  %9 = getelementptr inbounds i8, ptr %0, i64 1200
  %10 = load ptr, ptr %9, align 8
  %11 = load ptr, ptr %7, align 8
  %12 = ptrtoint ptr %10 to i64
  %13 = ptrtoint ptr %11 to i64
  %14 = sub i64 %12, %13
  %15 = sdiv exact i64 %14, 96
  %16 = icmp ult i64 %15, %8
  br i1 %16, label %17, label %19

17:                                               ; preds = %2
  %18 = sub nsw i64 %8, %15
  tail call void @_ZNSt6vectorIN2cv3MatESaIS1_EE17_M_default_appendEm(ptr noundef nonnull align 8 dereferenceable(24) %7, i64 noundef %18)
  br label %_ZNSt6vectorIN2cv3MatESaIS1_EE6resizeEm.exit

19:                                               ; preds = %2
  %20 = icmp ugt i64 %15, %8
  br i1 %20, label %21, label %_ZNSt6vectorIN2cv3MatESaIS1_EE6resizeEm.exit

21:                                               ; preds = %19
  %22 = getelementptr inbounds %"class.cv::Mat", ptr %11, i64 %8
  %.not.i.i = icmp eq ptr %10, %22
  br i1 %.not.i.i, label %_ZNSt6vectorIN2cv3MatESaIS1_EE6resizeEm.exit, label %.lr.ph.i.i.i.i.i

.lr.ph.i.i.i.i.i:                                 ; preds = %21, %.lr.ph.i.i.i.i.i
  %.05.i.i.i.i.i = phi ptr [ %23, %.lr.ph.i.i.i.i.i ], [ %22, %21 ]
  tail call void @_ZN2cv3MatD1Ev(ptr noundef nonnull align 8 dereferenceable(96) %.05.i.i.i.i.i) #29
  %23 = getelementptr inbounds i8, ptr %.05.i.i.i.i.i, i64 96
  %.not.i.i.i.i.i = icmp eq ptr %23, %10
  br i1 %.not.i.i.i.i.i, label %_ZSt8_DestroyIPN2cv3MatES1_EvT_S3_RSaIT0_E.exit.i.i, label %.lr.ph.i.i.i.i.i, !llvm.loop !9

_ZSt8_DestroyIPN2cv3MatES1_EvT_S3_RSaIT0_E.exit.i.i: ; preds = %.lr.ph.i.i.i.i.i
  store ptr %22, ptr %9, align 8
  br label %_ZNSt6vectorIN2cv3MatESaIS1_EE6resizeEm.exit

_ZNSt6vectorIN2cv3MatESaIS1_EE6resizeEm.exit:     ; preds = %17, %19, %21, %_ZSt8_DestroyIPN2cv3MatES1_EvT_S3_RSaIT0_E.exit.i.i
  %24 = getelementptr inbounds i8, ptr %0, i64 1216
  %25 = getelementptr inbounds i8, ptr %0, i64 1224
  %26 = load ptr, ptr %25, align 8
  %27 = load ptr, ptr %24, align 8
  %28 = ptrtoint ptr %26 to i64
  %29 = ptrtoint ptr %27 to i64
  %30 = sub i64 %28, %29
  %31 = sdiv exact i64 %30, 96
  %32 = icmp ult i64 %31, %8
  br i1 %32, label %33, label %35

33:                                               ; preds = %_ZNSt6vectorIN2cv3MatESaIS1_EE6resizeEm.exit
  %34 = sub nsw i64 %8, %31
  tail call void @_ZNSt6vectorIN2cv3MatESaIS1_EE17_M_default_appendEm(ptr noundef nonnull align 8 dereferenceable(24) %24, i64 noundef %34)
  br label %_ZNSt6vectorIN2cv3MatESaIS1_EE6resizeEm.exit18

35:                                               ; preds = %_ZNSt6vectorIN2cv3MatESaIS1_EE6resizeEm.exit
  %36 = icmp ugt i64 %31, %8
  br i1 %36, label %37, label %_ZNSt6vectorIN2cv3MatESaIS1_EE6resizeEm.exit18

37:                                               ; preds = %35
  %38 = getelementptr inbounds %"class.cv::Mat", ptr %27, i64 %8
  %.not.i.i13 = icmp eq ptr %26, %38
  br i1 %.not.i.i13, label %_ZNSt6vectorIN2cv3MatESaIS1_EE6resizeEm.exit18, label %.lr.ph.i.i.i.i.i14

.lr.ph.i.i.i.i.i14:                               ; preds = %37, %.lr.ph.i.i.i.i.i14
  %.05.i.i.i.i.i15 = phi ptr [ %39, %.lr.ph.i.i.i.i.i14 ], [ %38, %37 ]
  tail call void @_ZN2cv3MatD1Ev(ptr noundef nonnull align 8 dereferenceable(96) %.05.i.i.i.i.i15) #29
  %39 = getelementptr inbounds i8, ptr %.05.i.i.i.i.i15, i64 96
  %.not.i.i.i.i.i16 = icmp eq ptr %39, %26
  br i1 %.not.i.i.i.i.i16, label %_ZSt8_DestroyIPN2cv3MatES1_EvT_S3_RSaIT0_E.exit.i.i17, label %.lr.ph.i.i.i.i.i14, !llvm.loop !9

_ZSt8_DestroyIPN2cv3MatES1_EvT_S3_RSaIT0_E.exit.i.i17: ; preds = %.lr.ph.i.i.i.i.i14
  store ptr %38, ptr %25, align 8
  br label %_ZNSt6vectorIN2cv3MatESaIS1_EE6resizeEm.exit18

_ZNSt6vectorIN2cv3MatESaIS1_EE6resizeEm.exit18:   ; preds = %33, %35, %37, %_ZSt8_DestroyIPN2cv3MatES1_EvT_S3_RSaIT0_E.exit.i.i17
  %40 = getelementptr inbounds i8, ptr %0, i64 1240
  %41 = getelementptr inbounds i8, ptr %0, i64 1248
  %42 = load ptr, ptr %41, align 8
  %43 = load ptr, ptr %40, align 8
  %44 = ptrtoint ptr %42 to i64
  %45 = ptrtoint ptr %43 to i64
  %46 = sub i64 %44, %45
  %47 = sdiv exact i64 %46, 96
  %48 = icmp ult i64 %47, %8
  br i1 %48, label %49, label %51

49:                                               ; preds = %_ZNSt6vectorIN2cv3MatESaIS1_EE6resizeEm.exit18
  %50 = sub nsw i64 %8, %47
  tail call void @_ZNSt6vectorIN2cv3MatESaIS1_EE17_M_default_appendEm(ptr noundef nonnull align 8 dereferenceable(24) %40, i64 noundef %50)
  br label %_ZNSt6vectorIN2cv3MatESaIS1_EE6resizeEm.exit24

51:                                               ; preds = %_ZNSt6vectorIN2cv3MatESaIS1_EE6resizeEm.exit18
  %52 = icmp ugt i64 %47, %8
  br i1 %52, label %53, label %_ZNSt6vectorIN2cv3MatESaIS1_EE6resizeEm.exit24

53:                                               ; preds = %51
  %54 = getelementptr inbounds %"class.cv::Mat", ptr %43, i64 %8
  %.not.i.i19 = icmp eq ptr %42, %54
  br i1 %.not.i.i19, label %_ZNSt6vectorIN2cv3MatESaIS1_EE6resizeEm.exit24, label %.lr.ph.i.i.i.i.i20

.lr.ph.i.i.i.i.i20:                               ; preds = %53, %.lr.ph.i.i.i.i.i20
  %.05.i.i.i.i.i21 = phi ptr [ %55, %.lr.ph.i.i.i.i.i20 ], [ %54, %53 ]
  tail call void @_ZN2cv3MatD1Ev(ptr noundef nonnull align 8 dereferenceable(96) %.05.i.i.i.i.i21) #29
  %55 = getelementptr inbounds i8, ptr %.05.i.i.i.i.i21, i64 96
  %.not.i.i.i.i.i22 = icmp eq ptr %55, %42
  br i1 %.not.i.i.i.i.i22, label %_ZSt8_DestroyIPN2cv3MatES1_EvT_S3_RSaIT0_E.exit.i.i23, label %.lr.ph.i.i.i.i.i20, !llvm.loop !9

_ZSt8_DestroyIPN2cv3MatES1_EvT_S3_RSaIT0_E.exit.i.i23: ; preds = %.lr.ph.i.i.i.i.i20
  store ptr %54, ptr %41, align 8
  br label %_ZNSt6vectorIN2cv3MatESaIS1_EE6resizeEm.exit24

_ZNSt6vectorIN2cv3MatESaIS1_EE6resizeEm.exit24:   ; preds = %49, %51, %53, %_ZSt8_DestroyIPN2cv3MatES1_EvT_S3_RSaIT0_E.exit.i.i23
  %56 = getelementptr inbounds i8, ptr %0, i64 1264
  %57 = getelementptr inbounds i8, ptr %0, i64 1272
  %58 = load ptr, ptr %57, align 8
  %59 = load ptr, ptr %56, align 8
  %60 = ptrtoint ptr %58 to i64
  %61 = ptrtoint ptr %59 to i64
  %62 = sub i64 %60, %61
  %63 = sdiv exact i64 %62, 96
  %64 = icmp ult i64 %63, %8
  br i1 %64, label %65, label %67

65:                                               ; preds = %_ZNSt6vectorIN2cv3MatESaIS1_EE6resizeEm.exit24
  %66 = sub nsw i64 %8, %63
  tail call void @_ZNSt6vectorIN2cv3MatESaIS1_EE17_M_default_appendEm(ptr noundef nonnull align 8 dereferenceable(24) %56, i64 noundef %66)
  br label %_ZNSt6vectorIN2cv3MatESaIS1_EE6resizeEm.exit30

67:                                               ; preds = %_ZNSt6vectorIN2cv3MatESaIS1_EE6resizeEm.exit24
  %68 = icmp ugt i64 %63, %8
  br i1 %68, label %69, label %_ZNSt6vectorIN2cv3MatESaIS1_EE6resizeEm.exit30

69:                                               ; preds = %67
  %70 = getelementptr inbounds %"class.cv::Mat", ptr %59, i64 %8
  %.not.i.i25 = icmp eq ptr %58, %70
  br i1 %.not.i.i25, label %_ZNSt6vectorIN2cv3MatESaIS1_EE6resizeEm.exit30, label %.lr.ph.i.i.i.i.i26

.lr.ph.i.i.i.i.i26:                               ; preds = %69, %.lr.ph.i.i.i.i.i26
  %.05.i.i.i.i.i27 = phi ptr [ %71, %.lr.ph.i.i.i.i.i26 ], [ %70, %69 ]
  tail call void @_ZN2cv3MatD1Ev(ptr noundef nonnull align 8 dereferenceable(96) %.05.i.i.i.i.i27) #29
  %71 = getelementptr inbounds i8, ptr %.05.i.i.i.i.i27, i64 96
  %.not.i.i.i.i.i28 = icmp eq ptr %71, %58
  br i1 %.not.i.i.i.i.i28, label %_ZSt8_DestroyIPN2cv3MatES1_EvT_S3_RSaIT0_E.exit.i.i29, label %.lr.ph.i.i.i.i.i26, !llvm.loop !9

_ZSt8_DestroyIPN2cv3MatES1_EvT_S3_RSaIT0_E.exit.i.i29: ; preds = %.lr.ph.i.i.i.i.i26
  store ptr %70, ptr %57, align 8
  br label %_ZNSt6vectorIN2cv3MatESaIS1_EE6resizeEm.exit30

_ZNSt6vectorIN2cv3MatESaIS1_EE6resizeEm.exit30:   ; preds = %65, %67, %69, %_ZSt8_DestroyIPN2cv3MatES1_EvT_S3_RSaIT0_E.exit.i.i29
  %72 = getelementptr inbounds i8, ptr %0, i64 984
  store i32 -1, ptr %72, align 8
  %73 = load i32, ptr %3, align 8
  %.not31 = icmp slt i32 %73, 0
  br i1 %.not31, label %._crit_edge, label %.lr.ph.preheader

.lr.ph.preheader:                                 ; preds = %_ZNSt6vectorIN2cv3MatESaIS1_EE6resizeEm.exit30
  %74 = sub nsw i32 0, %73
  br label %.lr.ph

.preheader:                                       ; preds = %.lr.ph
  %.not1233 = icmp slt i32 %76, 0
  br i1 %.not1233, label %._crit_edge, label %.lr.ph35

.lr.ph:                                           ; preds = %.lr.ph.preheader, %.lr.ph
  %.01032 = phi i32 [ %75, %.lr.ph ], [ %74, %.lr.ph.preheader ]
  tail call fastcc void @_ZN12_GLOBAL__N_15BTVL113readNextFrameERN2cv3PtrINS1_8superres11FrameSourceEEE(ptr noundef nonnull align 8 dereferenceable(1456) %0, ptr noundef nonnull align 8 dereferenceable(16) %1)
  %75 = add nsw i32 %.01032, 1
  %76 = load i32, ptr %3, align 8
  %.not.not = icmp slt i32 %.01032, %76
  br i1 %.not.not, label %.lr.ph, label %.preheader, !llvm.loop !11

.lr.ph35:                                         ; preds = %.preheader, %.lr.ph35
  %.034 = phi i32 [ %77, %.lr.ph35 ], [ 0, %.preheader ]
  tail call fastcc void @_ZN12_GLOBAL__N_15BTVL112processFrameEi(ptr noundef nonnull align 8 dereferenceable(1456) %0, i32 noundef %.034)
  %77 = add nuw nsw i32 %.034, 1
  %78 = load i32, ptr %3, align 8
  %.not12.not = icmp slt i32 %.034, %78
  br i1 %.not12.not, label %.lr.ph35, label %._crit_edge, !llvm.loop !12

._crit_edge:                                      ; preds = %.lr.ph35, %_ZNSt6vectorIN2cv3MatESaIS1_EE6resizeEm.exit30, %.preheader
  %.lcssa = phi i32 [ %76, %.preheader ], [ %73, %_ZNSt6vectorIN2cv3MatESaIS1_EE6resizeEm.exit30 ], [ %78, %.lr.ph35 ]
  %79 = getelementptr inbounds i8, ptr %0, i64 988
  store i32 %.lcssa, ptr %79, align 4
  %80 = getelementptr inbounds i8, ptr %0, i64 992
  store i32 -1, ptr %80, align 8
  ret void
}